target datalayout = "e-m:e-p270:32:32-p271:32:32-p272:64:64-i64:64-i128:128-f80:128-n8:16:32:64-S128"
target triple = "x86_64-pc-linux-gnu"

%struct.PLATFORM_hid_device_ = type { i32, i32, i32, ptr, ptr }

@.str.16 = private unnamed_addr constant [8 x i32] [i32 83, i32 117, i32 99, i32 99, i32 101, i32 115, i32 115, i32 0], align 4
@last_global_error_str = internal global ptr null, align 8

; Function Attrs: nounwind uwtable
define hidden ptr @PLATFORM_hid_error(ptr noundef %0) #0 {
  %2 = alloca ptr, align 8
  %3 = alloca ptr, align 8
  store ptr %0, ptr %3, align 8
  %4 = load ptr, ptr %3, align 8
  %5 = icmp ne ptr %4, null
  br i1 %5, label %6, label %16

6:                                                ; preds = %1
  %7 = load ptr, ptr %3, align 8
  %8 = getelementptr inbounds nuw %struct.PLATFORM_hid_device_, ptr %7, i32 0, i32 3
  %9 = load ptr, ptr %8, align 8
  %10 = icmp eq ptr %9, null
  br i1 %10, label %11, label %12

11:                                               ; preds = %6
  store ptr @.str.16, ptr %2, align 8
  br label %22

12:                                               ; preds = %6
  %13 = load ptr, ptr %3, align 8
  %14 = getelementptr inbounds nuw %struct.PLATFORM_hid_device_, ptr %13, i32 0, i32 3
  %15 = load ptr, ptr %14, align 8
  store ptr %15, ptr %2, align 8
  br label %22

16:                                               ; preds = %1
  %17 = load ptr, ptr @last_global_error_str, align 8
  %18 = icmp eq ptr %17, null
  br i1 %18, label %19, label %20

19:                                               ; preds = %16
  store ptr @.str.16, ptr %2, align 8
  br label %22

20:                                               ; preds = %16
  %21 = load ptr, ptr @last_global_error_str, align 8
  store ptr %21, ptr %2, align 8
  br label %22

22:                                               ; preds = %20, %19, %12, %11
  %23 = load ptr, ptr %2, align 8
  ret ptr %23
}