; Function Attrs: mustprogress nofree norecurse nosync nounwind willreturn memory(read, inaccessiblemem: none) uwtable
define hidden nonnull ptr @PLATFORM_hid_error(ptr noundef readonly captures(address_is_null) %0) #11 {
  %.not = icmp eq ptr %0, null
  %2 = getelementptr inbounds nuw i8, ptr %0, i64 16
  %.sink9.in = select i1 %.not, ptr @last_global_error_str, ptr %2
  %.sink9 = load ptr, ptr %.sink9.in, align 8
  %3 = icmp eq ptr %.sink9, null
  %.str.16.7 = select i1 %3, ptr @.str.16, ptr %.sink9
  ret ptr %.str.16.7
}